target datalayout = "e-m:e-p270:32:32-p271:32:32-p272:64:64-i64:64-i128:128-f80:128-n8:16:32:64-S128"
target triple = "x86_64-pc-linux-gnu"

%struct.pmix_globals_t = type { i32, %struct.pmix_proc, %struct.pmix_value, %struct.pmix_value, ptr, i32, i32, ptr, i32, i32, i32, i32, i32, ptr, ptr, i32, %struct.pmix_events_t, i8, i8, %struct.timeval, %struct.pmix_list_t, %struct.pmix_pointer_array_t, i32, i32, %struct.pmix_hotel_t, i8, %struct.pmix_list_t, i8, i8, i8, i64, %struct.pmix_list_t, %struct.pmix_topology_t, %struct.pmix_cpuset_t, i8, i8, %struct.pmix_iof_flags_t, %struct.pmix_keyindex_t }
%struct.pmix_proc = type { [256 x i8], i32 }
%struct.pmix_value = type { i16, %union.anon.9 }
%union.anon.9 = type { %struct.pmix_envar_t }
%struct.pmix_envar_t = type { ptr, ptr, i8 }
%struct.pmix_events_t = type { %struct.pmix_object_t, i64, ptr, ptr, %struct.pmix_list_t, %struct.pmix_list_t, %struct.pmix_list_t, %struct.pmix_list_t }
%struct.pmix_object_t = type { %union.pthread_mutex_t, ptr, i32, %struct.pmix_tma }
%union.pthread_mutex_t = type { %struct.__pthread_mutex_s }
%struct.__pthread_mutex_s = type { i32, i32, i32, i32, i32, i16, i16, %struct.__pthread_internal_list }
%struct.__pthread_internal_list = type { ptr, ptr }
%struct.pmix_tma = type { ptr, ptr, ptr, ptr, ptr, ptr, ptr, ptr }
%struct.timeval = type { i64, i64 }
%struct.pmix_pointer_array_t = type { %struct.pmix_object_t, i32, i32, i32, i32, i32, ptr, ptr }
%struct.pmix_hotel_t = type { %struct.pmix_object_t, i32, ptr, %struct.timeval, ptr, ptr, ptr, ptr, i32 }
%struct.pmix_list_t = type { %struct.pmix_object_t, %struct.pmix_list_item_t, i64 }
%struct.pmix_list_item_t = type { %struct.pmix_object_t, ptr, ptr, i32 }
%struct.pmix_topology_t = type { ptr, ptr }
%struct.pmix_cpuset_t = type { ptr, ptr }
%struct.pmix_iof_flags_t = type { i8, i8, i8, i8, i8, i8, i8, ptr, ptr, i8, i8, i8, i8, i8, i8 }
%struct.pmix_keyindex_t = type { %struct.pmix_object_t, ptr, i32 }
%struct.pmix_mca_base_framework_t = type { ptr, ptr, ptr, ptr, ptr, ptr, i32, i32, ptr, ptr, i32, i32, %struct.pmix_list_t, %struct.pmix_list_t }
%struct.pmix_output_desc_t = type { i8, i8, i32, i8, i32, ptr, ptr, i32, ptr, i32, i8, i8, i8, i8, ptr, i32, i32 }
%struct.pmix_class_t = type { ptr, ptr, ptr, ptr, i32, i32, ptr, ptr, i64 }
%struct.pmix_cb_t = type { %struct.pmix_list_item_t, %struct.event, %struct.pmix_lock_t, i8, i32, i32, i8, %struct.pmix_buffer_t, %union.anon.8, i64, ptr, %struct.pmix_name_t, ptr, ptr, ptr, ptr, i64, ptr, i64, ptr, i8, i64, %struct.pmix_list_t, i8, ptr, i8, ptr, ptr }
%struct.event = type { %struct.event_callback, %union.anon.0, i32, ptr, %union.anon.2, i16, i16, %struct.timeval }
%struct.event_callback = type { %struct.anon, i16, i8, i8, %union.anon, ptr }
%struct.anon = type { ptr, ptr }
%union.anon = type { ptr }
%union.anon.0 = type { %struct.anon.1 }
%struct.anon.1 = type { ptr, ptr }
%union.anon.2 = type { %struct.anon.3 }
%struct.anon.3 = type { %struct.anon.4, %struct.timeval }
%struct.anon.4 = type { ptr, ptr }
%struct.pmix_lock_t = type { i32, %struct.pmix_mutex_t, %union.pthread_cond_t, i8 }
%struct.pmix_mutex_t = type { %struct.pmix_object_t, %union.pthread_mutex_t }
%union.pthread_cond_t = type { %struct.__pthread_cond_s }
%struct.__pthread_cond_s = type { %union.__atomic_wide_counter, %union.__atomic_wide_counter, [2 x i32], [2 x i32], i32, i32, [2 x i32] }
%union.__atomic_wide_counter = type { i64 }
%struct.pmix_buffer_t = type { %struct.pmix_object_t, i8, ptr, ptr, ptr, i64, i64 }
%union.anon.8 = type { ptr }
%struct.pmix_name_t = type { ptr, i32 }

@pmix_globals = external global %struct.pmix_globals_t, align 8
@pmix_plog_base_framework = external global %struct.pmix_mca_base_framework_t, align 8
@pmix_output_info = external global [0 x %struct.pmix_output_desc_t], align 8
@.str = private unnamed_addr constant [12 x i8] c"%s pmix:log\00", align 1
@pmix_class_init_epoch = external global i32, align 4
@pmix_cb_t_class = external global %struct.pmix_class_t, align 8
@.str.1 = private unnamed_addr constant [19 x i8] c"pmix:log completed\00", align 1

; Function Attrs: inlinehint nounwind uwtable
define internal void @pmix_obj_run_destructors(ptr noundef %0) #3 {
  %2 = alloca ptr, align 8
  %3 = alloca ptr, align 8
  store ptr %0, ptr %2, align 8, !tbaa !66
  call void @llvm.lifetime.start.p0(i64 8, ptr %3) #11
  %4 = load ptr, ptr %2, align 8, !tbaa !66
  %5 = getelementptr inbounds nuw %struct.pmix_object_t, ptr %4, i32 0, i32 1
  %6 = load ptr, ptr %5, align 8, !tbaa !44
  %7 = getelementptr inbounds nuw %struct.pmix_class_t, ptr %6, i32 0, i32 7
  %8 = load ptr, ptr %7, align 8, !tbaa !125
  store ptr %8, ptr %3, align 8, !tbaa !79
  br label %9

9:                                                ; preds = %13, %1
  %10 = load ptr, ptr %3, align 8, !tbaa !79
  %11 = load ptr, ptr %10, align 8, !tbaa !79
  %12 = icmp ne ptr null, %11
  br i1 %12, label %13, label %19

13:                                               ; preds = %9
  %14 = load ptr, ptr %3, align 8, !tbaa !79
  %15 = load ptr, ptr %14, align 8, !tbaa !79
  %16 = load ptr, ptr %2, align 8, !tbaa !66
  call void %15(ptr noundef %16)
  %17 = load ptr, ptr %3, align 8, !tbaa !79
  %18 = getelementptr inbounds nuw ptr, ptr %17, i32 1
  store ptr %18, ptr %3, align 8, !tbaa !79
  br label %9, !llvm.loop !126

19:                                               ; preds = %9
  call void @llvm.lifetime.end.p0(i64 8, ptr %3) #11
  ret void
}

; Function Attrs: inlinehint nounwind uwtable
define internal void @pmix_mutex_unlock(ptr noundef %0) #3 {
  %2 = alloca ptr, align 8
  store ptr %0, ptr %2, align 8, !tbaa !123
  %3 = load ptr, ptr %2, align 8, !tbaa !123
  %4 = getelementptr inbounds nuw %struct.pmix_mutex_t, ptr %3, i32 0, i32 1
  %5 = call i32 @pthread_mutex_unlock(ptr noundef %4) #11
  ret void
}

; Function Attrs: inlinehint nounwind uwtable
define internal void @pmix_atomic_rmb() #3 {
  fence acquire
  ret void
}

; Function Attrs: inlinehint nounwind uwtable
define internal void @pmix_mutex_lock(ptr noundef %0) #3 {
  %2 = alloca ptr, align 8
  store ptr %0, ptr %2, align 8, !tbaa !123
  %3 = load ptr, ptr %2, align 8, !tbaa !123
  %4 = getelementptr inbounds nuw %struct.pmix_mutex_t, ptr %3, i32 0, i32 1
  %5 = call i32 @pthread_mutex_lock(ptr noundef %4) #11
  ret void
}

; Function Attrs: inlinehint nounwind uwtable
define internal void @pmix_obj_run_constructors(ptr noundef %0) #3 {
  %2 = alloca ptr, align 8
  %3 = alloca ptr, align 8
  store ptr %0, ptr %2, align 8, !tbaa !66
  call void @llvm.lifetime.start.p0(i64 8, ptr %3) #11
  %4 = load ptr, ptr %2, align 8, !tbaa !66
  %5 = getelementptr inbounds nuw %struct.pmix_object_t, ptr %4, i32 0, i32 1
  %6 = load ptr, ptr %5, align 8, !tbaa !44
  %7 = getelementptr inbounds nuw %struct.pmix_class_t, ptr %6, i32 0, i32 6
  %8 = load ptr, ptr %7, align 8, !tbaa !80
  store ptr %8, ptr %3, align 8, !tbaa !79
  br label %9

9:                                                ; preds = %13, %1
  %10 = load ptr, ptr %3, align 8, !tbaa !79
  %11 = load ptr, ptr %10, align 8, !tbaa !79
  %12 = icmp ne ptr null, %11
  br i1 %12, label %13, label %19

13:                                               ; preds = %9
  %14 = load ptr, ptr %3, align 8, !tbaa !79
  %15 = load ptr, ptr %14, align 8, !tbaa !79
  %16 = load ptr, ptr %2, align 8, !tbaa !66
  call void %15(ptr noundef %16)
  %17 = load ptr, ptr %3, align 8, !tbaa !79
  %18 = getelementptr inbounds nuw ptr, ptr %17, i32 1
  store ptr %18, ptr %3, align 8, !tbaa !79
  br label %9, !llvm.loop !81

19:                                               ; preds = %9
  call void @llvm.lifetime.end.p0(i64 8, ptr %3) #11
  ret void
}

; Function Attrs: inlinehint nounwind uwtable
define internal void @pmix_obj_construct_tma(ptr noundef %0, ptr noundef %1) #3 {
  %3 = alloca ptr, align 8
  %4 = alloca ptr, align 8
  store ptr %0, ptr %3, align 8, !tbaa !66
  store ptr %1, ptr %4, align 8, !tbaa !68
  %5 = load ptr, ptr %4, align 8, !tbaa !68
  %6 = icmp eq ptr null, %5
  br i1 %6, label %7, label %32

7:                                                ; preds = %2
  %8 = load ptr, ptr %3, align 8, !tbaa !66
  %9 = getelementptr inbounds nuw %struct.pmix_object_t, ptr %8, i32 0, i32 3
  %10 = getelementptr inbounds nuw %struct.pmix_tma, ptr %9, i32 0, i32 0
  store ptr null, ptr %10, align 8, !tbaa !70
  %11 = load ptr, ptr %3, align 8, !tbaa !66
  %12 = getelementptr inbounds nuw %struct.pmix_object_t, ptr %11, i32 0, i32 3
  %13 = getelementptr inbounds nuw %struct.pmix_tma, ptr %12, i32 0, i32 1
  store ptr null, ptr %13, align 8, !tbaa !71
  %14 = load ptr, ptr %3, align 8, !tbaa !66
  %15 = getelementptr inbounds nuw %struct.pmix_object_t, ptr %14, i32 0, i32 3
  %16 = getelementptr inbounds nuw %struct.pmix_tma, ptr %15, i32 0, i32 2
  store ptr null, ptr %16, align 8, !tbaa !72
  %17 = load ptr, ptr %3, align 8, !tbaa !66
  %18 = getelementptr inbounds nuw %struct.pmix_object_t, ptr %17, i32 0, i32 3
  %19 = getelementptr inbounds nuw %struct.pmix_tma, ptr %18, i32 0, i32 3
  store ptr null, ptr %19, align 8, !tbaa !73
  %20 = load ptr, ptr %3, align 8, !tbaa !66
  %21 = getelementptr inbounds nuw %struct.pmix_object_t, ptr %20, i32 0, i32 3
  %22 = getelementptr inbounds nuw %struct.pmix_tma, ptr %21, i32 0, i32 4
  store ptr null, ptr %22, align 8, !tbaa !74
  %23 = load ptr, ptr %3, align 8, !tbaa !66
  %24 = getelementptr inbounds nuw %struct.pmix_object_t, ptr %23, i32 0, i32 3
  %25 = getelementptr inbounds nuw %struct.pmix_tma, ptr %24, i32 0, i32 5
  store ptr null, ptr %25, align 8, !tbaa !75
  %26 = load ptr, ptr %3, align 8, !tbaa !66
  %27 = getelementptr inbounds nuw %struct.pmix_object_t, ptr %26, i32 0, i32 3
  %28 = getelementptr inbounds nuw %struct.pmix_tma, ptr %27, i32 0, i32 6
  store ptr null, ptr %28, align 8, !tbaa !76
  %29 = load ptr, ptr %3, align 8, !tbaa !66
  %30 = getelementptr inbounds nuw %struct.pmix_object_t, ptr %29, i32 0, i32 3
  %31 = getelementptr inbounds nuw %struct.pmix_tma, ptr %30, i32 0, i32 7
  store ptr null, ptr %31, align 8, !tbaa !77
  br label %36

32:                                               ; preds = %2
  %33 = load ptr, ptr %3, align 8, !tbaa !66
  %34 = getelementptr inbounds nuw %struct.pmix_object_t, ptr %33, i32 0, i32 3
  %35 = load ptr, ptr %4, align 8, !tbaa !68
  call void @llvm.memcpy.p0.p0.i64(ptr align 8 %34, ptr align 8 %35, i64 64, i1 false), !tbaa.struct !78
  br label %36

36:                                               ; preds = %32, %7
  ret void
}

; Function Attrs: nounwind uwtable
define i32 @PMIx_Log(ptr noundef %0, i64 noundef %1, ptr noundef %2, i64 noundef %3) #0 {
  %5 = alloca i32, align 4
  %6 = alloca ptr, align 8
  %7 = alloca i64, align 8
  %8 = alloca ptr, align 8
  %9 = alloca i64, align 8
  %10 = alloca %struct.pmix_cb_t, align 8
  %11 = alloca i32, align 4
  %12 = alloca i32, align 4
  store ptr %0, ptr %6, align 8, !tbaa !3
  store i64 %1, ptr %7, align 8, !tbaa !8
  store ptr %2, ptr %8, align 8, !tbaa !3
  store i64 %3, ptr %9, align 8, !tbaa !8
  call void @llvm.lifetime.start.p0(i64 1112, ptr %10) #11
  call void @llvm.lifetime.start.p0(i64 4, ptr %11) #11
  %13 = load i32, ptr @pmix_globals, align 8, !tbaa !10
  %14 = icmp sle i32 %13, 0
  br i1 %14, label %15, label %16

15:                                               ; preds = %4
  store i32 -31, ptr %5, align 4
  store i32 1, ptr %12, align 4
  br label %108

16:                                               ; preds = %4
  %17 = load i32, ptr getelementptr inbounds nuw (%struct.pmix_mca_base_framework_t, ptr @pmix_plog_base_framework, i32 0, i32 11), align 4, !tbaa !36
  %18 = icmp sge i32 %17, 0
  br i1 %18, label %19, label %32

19:                                               ; preds = %16
  %20 = load i32, ptr getelementptr inbounds nuw (%struct.pmix_mca_base_framework_t, ptr @pmix_plog_base_framework, i32 0, i32 11), align 4, !tbaa !36
  %21 = icmp slt i32 %20, 64
  br i1 %21, label %22, label %32

22:                                               ; preds = %19
  %23 = load i32, ptr getelementptr inbounds nuw (%struct.pmix_mca_base_framework_t, ptr @pmix_plog_base_framework, i32 0, i32 11), align 4, !tbaa !36
  %24 = sext i32 %23 to i64
  %25 = getelementptr inbounds [0 x %struct.pmix_output_desc_t], ptr @pmix_output_info, i64 0, i64 %24
  %26 = getelementptr inbounds nuw %struct.pmix_output_desc_t, ptr %25, i32 0, i32 2
  %27 = load i32, ptr %26, align 4, !tbaa !39
  %28 = icmp sge i32 %27, 2
  br i1 %28, label %29, label %32

29:                                               ; preds = %22
  %30 = load i32, ptr getelementptr inbounds nuw (%struct.pmix_mca_base_framework_t, ptr @pmix_plog_base_framework, i32 0, i32 11), align 4, !tbaa !36
  %31 = call ptr @pmix_util_print_name_args(ptr noundef getelementptr inbounds nuw (%struct.pmix_globals_t, ptr @pmix_globals, i32 0, i32 1))
  call void (i32, ptr, ...) @pmix_output(i32 noundef %30, ptr noundef @.str, ptr noundef %31)
  br label %32

32:                                               ; preds = %29, %22, %19, %16
  br label %33

33:                                               ; preds = %32
  br label %34

34:                                               ; preds = %33
  br label %35

35:                                               ; preds = %34
  %36 = load i32, ptr @pmix_class_init_epoch, align 4, !tbaa !41
  %37 = load i32, ptr getelementptr inbounds nuw (%struct.pmix_class_t, ptr @pmix_cb_t_class, i32 0, i32 4), align 8, !tbaa !42
  %38 = icmp ne i32 %36, %37
  br i1 %38, label %39, label %40

39:                                               ; preds = %35
  call void @pmix_class_initialize(ptr noundef @pmix_cb_t_class)
  br label %40

40:                                               ; preds = %39, %35
  %41 = getelementptr inbounds nuw %struct.pmix_object_t, ptr %10, i32 0, i32 1
  store ptr @pmix_cb_t_class, ptr %41, align 8, !tbaa !44
  %42 = getelementptr inbounds nuw %struct.pmix_object_t, ptr %10, i32 0, i32 2
  store i32 1, ptr %42, align 8, !tbaa !45
  call void @pmix_obj_construct_tma(ptr noundef %10, ptr noundef null)
  call void @pmix_obj_run_constructors(ptr noundef %10)
  br label %43

43:                                               ; preds = %40
  br label %44

44:                                               ; preds = %43
  br label %45

45:                                               ; preds = %44
  br label %46

46:                                               ; preds = %45
  br label %47

47:                                               ; preds = %46
  br label %48

48:                                               ; preds = %47
  %49 = load ptr, ptr %6, align 8, !tbaa !3
  %50 = load i64, ptr %7, align 8, !tbaa !8
  %51 = load ptr, ptr %8, align 8, !tbaa !3
  %52 = load i64, ptr %9, align 8, !tbaa !8
  %53 = call i32 @PMIx_Log_nb(ptr noundef %49, i64 noundef %50, ptr noundef %51, i64 noundef %52, ptr noundef @opcbfunc, ptr noundef %10)
  store i32 %53, ptr %11, align 4, !tbaa !41
  %54 = load i32, ptr %11, align 4, !tbaa !41
  %55 = icmp eq i32 0, %54
  br i1 %55, label %56, label %77

56:                                               ; preds = %48
  br label %57

57:                                               ; preds = %56
  %58 = getelementptr inbounds nuw %struct.pmix_cb_t, ptr %10, i32 0, i32 2
  %59 = getelementptr inbounds nuw %struct.pmix_lock_t, ptr %58, i32 0, i32 1
  call void @pmix_mutex_lock(ptr noundef %59)
  br label %60

60:                                               ; preds = %65, %57
  %61 = getelementptr inbounds nuw %struct.pmix_cb_t, ptr %10, i32 0, i32 2
  %62 = getelementptr inbounds nuw %struct.pmix_lock_t, ptr %61, i32 0, i32 3
  %63 = load volatile i8, ptr %62, align 8, !tbaa !46, !range !61, !noundef !62
  %64 = trunc i8 %63 to i1
  br i1 %64, label %65, label %72

65:                                               ; preds = %60
  %66 = getelementptr inbounds nuw %struct.pmix_cb_t, ptr %10, i32 0, i32 2
  %67 = getelementptr inbounds nuw %struct.pmix_lock_t, ptr %66, i32 0, i32 2
  %68 = getelementptr inbounds nuw %struct.pmix_cb_t, ptr %10, i32 0, i32 2
  %69 = getelementptr inbounds nuw %struct.pmix_lock_t, ptr %68, i32 0, i32 1
  %70 = getelementptr inbounds nuw %struct.pmix_mutex_t, ptr %69, i32 0, i32 1
  %71 = call i32 @pthread_cond_wait(ptr noundef %67, ptr noundef %70)
  br label %60, !llvm.loop !63

72:                                               ; preds = %60
  call void @pmix_atomic_rmb()
  %73 = getelementptr inbounds nuw %struct.pmix_cb_t, ptr %10, i32 0, i32 2
  %74 = getelementptr inbounds nuw %struct.pmix_lock_t, ptr %73, i32 0, i32 1
  call void @pmix_mutex_unlock(ptr noundef %74)
  br label %75

75:                                               ; preds = %72
  br label %76

76:                                               ; preds = %75
  br label %86

77:                                               ; preds = %48
  br label %78

78:                                               ; preds = %77
  call void @pmix_obj_run_destructors(ptr noundef %10)
  br label %79

79:                                               ; preds = %78
  br label %80

80:                                               ; preds = %79
  %81 = load i32, ptr %11, align 4, !tbaa !41
  %82 = icmp eq i32 -157, %81
  br i1 %82, label %83, label %84

83:                                               ; preds = %80
  store i32 0, ptr %11, align 4, !tbaa !41
  br label %84

84:                                               ; preds = %83, %80
  %85 = load i32, ptr %11, align 4, !tbaa !41
  store i32 %85, ptr %5, align 4
  store i32 1, ptr %12, align 4
  br label %108

86:                                               ; preds = %76
  %87 = getelementptr inbounds nuw %struct.pmix_cb_t, ptr %10, i32 0, i32 4
  %88 = load i32, ptr %87, align 4, !tbaa !65
  store i32 %88, ptr %11, align 4, !tbaa !41
  br label %89

89:                                               ; preds = %86
  call void @pmix_obj_run_destructors(ptr noundef %10)
  br label %90

90:                                               ; preds = %89
  br label %91

91:                                               ; preds = %90
  %92 = load i32, ptr getelementptr inbounds nuw (%struct.pmix_mca_base_framework_t, ptr @pmix_plog_base_framework, i32 0, i32 11), align 4, !tbaa !36
  %93 = icmp sge i32 %92, 0
  br i1 %93, label %94, label %106

94:                                               ; preds = %91
  %95 = load i32, ptr getelementptr inbounds nuw (%struct.pmix_mca_base_framework_t, ptr @pmix_plog_base_framework, i32 0, i32 11), align 4, !tbaa !36
  %96 = icmp slt i32 %95, 64
  br i1 %96, label %97, label %106

97:                                               ; preds = %94
  %98 = load i32, ptr getelementptr inbounds nuw (%struct.pmix_mca_base_framework_t, ptr @pmix_plog_base_framework, i32 0, i32 11), align 4, !tbaa !36
  %99 = sext i32 %98 to i64
  %100 = getelementptr inbounds [0 x %struct.pmix_output_desc_t], ptr @pmix_output_info, i64 0, i64 %99
  %101 = getelementptr inbounds nuw %struct.pmix_output_desc_t, ptr %100, i32 0, i32 2
  %102 = load i32, ptr %101, align 4, !tbaa !39
  %103 = icmp sge i32 %102, 2
  br i1 %103, label %104, label %106

104:                                              ; preds = %97
  %105 = load i32, ptr getelementptr inbounds nuw (%struct.pmix_mca_base_framework_t, ptr @pmix_plog_base_framework, i32 0, i32 11), align 4, !tbaa !36
  call void (i32, ptr, ...) @pmix_output(i32 noundef %105, ptr noundef @.str.1)
  br label %106

106:                                              ; preds = %104, %97, %94, %91
  %107 = load i32, ptr %11, align 4, !tbaa !41
  store i32 %107, ptr %5, align 4
  store i32 1, ptr %12, align 4
  br label %108

108:                                              ; preds = %106, %84, %15
  call void @llvm.lifetime.end.p0(i64 4, ptr %11) #11
  call void @llvm.lifetime.end.p0(i64 1112, ptr %10) #11
  %109 = load i32, ptr %5, align 4
  ret i32 %109
}