; Function Attrs: nounwind uwtable
define i32 @PMIx_Log(ptr noundef %0, i64 noundef %1, ptr noundef %2, i64 noundef %3) local_unnamed_addr #0 {
  %5 = alloca %struct.pmix_cb_t, align 8
  call void @llvm.lifetime.start.p0(i64 1112, ptr nonnull %5) #12
  %6 = load i32, ptr @pmix_globals, align 8, !tbaa !3
  %7 = icmp slt i32 %6, 1
  br i1 %7, label %69, label %8

8:                                                ; preds = %4
  %9 = load i32, ptr getelementptr inbounds nuw (i8, ptr @pmix_plog_base_framework, i64 76), align 4, !tbaa !33
  %or.cond = icmp ult i32 %9, 64
  br i1 %or.cond, label %10, label %17

10:                                               ; preds = %8
  %11 = zext nneg i32 %9 to i64
  %12 = getelementptr inbounds nuw [0 x %struct.pmix_output_desc_t], ptr @pmix_output_info, i64 0, i64 %11, i32 2
  %13 = load i32, ptr %12, align 4, !tbaa !36
  %14 = icmp sgt i32 %13, 1
  br i1 %14, label %15, label %17

15:                                               ; preds = %10
  %16 = tail call ptr @pmix_util_print_name_args(ptr noundef nonnull getelementptr inbounds nuw (i8, ptr @pmix_globals, i64 4)) #12
  tail call void (i32, ptr, ...) @pmix_output(i32 noundef %9, ptr noundef nonnull @.str, ptr noundef %16) #12
  br label %17

17:                                               ; preds = %8, %10, %15
  %18 = load i32, ptr @pmix_class_init_epoch, align 4, !tbaa !38
  %19 = load i32, ptr getelementptr inbounds nuw (i8, ptr @pmix_cb_t_class, i64 32), align 8, !tbaa !39
  %.not = icmp eq i32 %18, %19
  br i1 %.not, label %21, label %20

20:                                               ; preds = %17
  tail call void @pmix_class_initialize(ptr noundef nonnull @pmix_cb_t_class) #12
  br label %21

21:                                               ; preds = %20, %17
  %22 = getelementptr inbounds nuw i8, ptr %5, i64 40
  store ptr @pmix_cb_t_class, ptr %22, align 8, !tbaa !41
  %23 = getelementptr inbounds nuw i8, ptr %5, i64 48
  store i32 1, ptr %23, align 8, !tbaa !42
  %24 = getelementptr inbounds nuw i8, ptr %5, i64 56
  call void @llvm.memset.p0.i64(ptr noundef nonnull align 8 dereferenceable(64) %24, i8 0, i64 64, i1 false)
  %25 = load ptr, ptr getelementptr inbounds nuw (i8, ptr @pmix_cb_t_class, i64 40), align 8, !tbaa !43
  %26 = load ptr, ptr %25, align 8, !tbaa !44
  %.not6.i = icmp eq ptr %26, null
  br i1 %.not6.i, label %pmix_obj_run_constructors.exit, label %.lr.ph.i

.lr.ph.i:                                         ; preds = %21, %.lr.ph.i
  %27 = phi ptr [ %29, %.lr.ph.i ], [ %26, %21 ]
  %.07.i = phi ptr [ %28, %.lr.ph.i ], [ %25, %21 ]
  call void %27(ptr noundef nonnull %5) #12
  %28 = getelementptr inbounds nuw i8, ptr %.07.i, i64 8
  %29 = load ptr, ptr %28, align 8, !tbaa !44
  %.not.i = icmp eq ptr %29, null
  br i1 %.not.i, label %pmix_obj_run_constructors.exit, label %.lr.ph.i, !llvm.loop !45

pmix_obj_run_constructors.exit:                   ; preds = %.lr.ph.i, %21
  %30 = call i32 @PMIx_Log_nb(ptr noundef %0, i64 noundef %1, ptr noundef %2, i64 noundef %3, ptr noundef nonnull @opcbfunc, ptr noundef nonnull %5)
  %31 = icmp eq i32 %30, 0
  br i1 %31, label %32, label %54

32:                                               ; preds = %pmix_obj_run_constructors.exit
  %33 = getelementptr inbounds nuw i8, ptr %5, i64 400
  %34 = call i32 @pthread_mutex_lock(ptr noundef nonnull %33) #12
  %35 = getelementptr inbounds nuw i8, ptr %5, i64 488
  %36 = load volatile i8, ptr %35, align 8, !tbaa !47, !range !63, !noundef !64
  %37 = trunc nuw i8 %36 to i1
  br i1 %37, label %.lr.ph, label %._crit_edge

.lr.ph:                                           ; preds = %32
  %38 = getelementptr inbounds nuw i8, ptr %5, i64 440
  br label %39

39:                                               ; preds = %.lr.ph, %39
  %40 = call i32 @pthread_cond_wait(ptr noundef nonnull %38, ptr noundef nonnull %33) #12
  %41 = load volatile i8, ptr %35, align 8, !tbaa !47, !range !63, !noundef !64
  %42 = trunc nuw i8 %41 to i1
  br i1 %42, label %39, label %._crit_edge, !llvm.loop !65

._crit_edge:                                      ; preds = %39, %32
  fence acquire
  %43 = call i32 @pthread_mutex_unlock(ptr noundef nonnull %33) #12
  %44 = getelementptr inbounds nuw i8, ptr %5, i64 500
  %45 = load i32, ptr %44, align 4, !tbaa !66
  %46 = load ptr, ptr %22, align 8, !tbaa !41
  %47 = getelementptr inbounds nuw i8, ptr %46, i64 48
  %48 = load ptr, ptr %47, align 8, !tbaa !67
  %49 = load ptr, ptr %48, align 8, !tbaa !44
  %.not6.i14 = icmp eq ptr %49, null
  br i1 %.not6.i14, label %pmix_obj_run_destructors.exit, label %.lr.ph.i15

.lr.ph.i15:                                       ; preds = %._crit_edge, %.lr.ph.i15
  %50 = phi ptr [ %52, %.lr.ph.i15 ], [ %49, %._crit_edge ]
  %.07.i16 = phi ptr [ %51, %.lr.ph.i15 ], [ %48, %._crit_edge ]
  call void %50(ptr noundef nonnull %5) #12
  %51 = getelementptr inbounds nuw i8, ptr %.07.i16, i64 8
  %52 = load ptr, ptr %51, align 8, !tbaa !44
  %.not.i17 = icmp eq ptr %52, null
  br i1 %.not.i17, label %pmix_obj_run_destructors.exit, label %.lr.ph.i15, !llvm.loop !68

pmix_obj_run_destructors.exit:                    ; preds = %.lr.ph.i15, %._crit_edge
  %53 = load i32, ptr getelementptr inbounds nuw (i8, ptr @pmix_plog_base_framework, i64 76), align 4, !tbaa !33
  %or.cond3 = icmp ult i32 %53, 64
  br i1 %or.cond3, label %63, label %69

54:                                               ; preds = %pmix_obj_run_constructors.exit
  %55 = load ptr, ptr %22, align 8, !tbaa !41
  %56 = getelementptr inbounds nuw i8, ptr %55, i64 48
  %57 = load ptr, ptr %56, align 8, !tbaa !67
  %58 = load ptr, ptr %57, align 8, !tbaa !44
  %.not6.i18 = icmp eq ptr %58, null
  br i1 %.not6.i18, label %pmix_obj_run_destructors.exit22, label %.lr.ph.i19

.lr.ph.i19:                                       ; preds = %54, %.lr.ph.i19
  %59 = phi ptr [ %61, %.lr.ph.i19 ], [ %58, %54 ]
  %.07.i20 = phi ptr [ %60, %.lr.ph.i19 ], [ %57, %54 ]
  call void %59(ptr noundef nonnull %5) #12
  %60 = getelementptr inbounds nuw i8, ptr %.07.i20, i64 8
  %61 = load ptr, ptr %60, align 8, !tbaa !44
  %.not.i21 = icmp eq ptr %61, null
  br i1 %.not.i21, label %pmix_obj_run_destructors.exit22, label %.lr.ph.i19, !llvm.loop !68

pmix_obj_run_destructors.exit22:                  ; preds = %.lr.ph.i19, %54
  %62 = icmp eq i32 %30, -157
  %spec.store.select = select i1 %62, i32 0, i32 %30
  br label %69

63:                                               ; preds = %pmix_obj_run_destructors.exit
  %64 = zext nneg i32 %53 to i64
  %65 = getelementptr inbounds nuw [0 x %struct.pmix_output_desc_t], ptr @pmix_output_info, i64 0, i64 %64, i32 2
  %66 = load i32, ptr %65, align 4, !tbaa !36
  %67 = icmp sgt i32 %66, 1
  br i1 %67, label %68, label %69

68:                                               ; preds = %63
  call void (i32, ptr, ...) @pmix_output(i32 noundef %53, ptr noundef nonnull @.str.1) #12
  br label %69

69:                                               ; preds = %pmix_obj_run_destructors.exit, %63, %68, %4, %pmix_obj_run_destructors.exit22
  %.0 = phi i32 [ %spec.store.select, %pmix_obj_run_destructors.exit22 ], [ -31, %4 ], [ %45, %68 ], [ %45, %63 ], [ %45, %pmix_obj_run_destructors.exit ]
  call void @llvm.lifetime.end.p0(i64 1112, ptr nonnull %5) #12
  ret i32 %.0
}